target datalayout = "e-m:e-p270:32:32-p271:32:32-p272:64:64-i64:64-i128:128-f80:128-n8:16:32:64-S128"
target triple = "x86_64-unknown-linux-gnu"

; Function Attrs: mustprogress nounwind uwtable
define linkonce_odr noundef ptr @_ZN7rocksdb22static_cast_with_checkIKNS_22HistogramWindowingImplEKNS_9HistogramEEEPT_PT0_(ptr noundef %x) #1 comdat {
entry:
  %x.addr = alloca ptr, align 8
  %ret = alloca ptr, align 8
  store ptr %x, ptr %x.addr, align 8
  %0 = load ptr, ptr %x.addr, align 8
  store ptr %0, ptr %ret, align 8
  %1 = load ptr, ptr %ret, align 8
  ret ptr %1
}

; Function Attrs: mustprogress uwtable
define void @_ZN7rocksdb22HistogramWindowingImpl5MergeERKNS_9HistogramE(ptr noundef nonnull align 8 dereferenceable(1032) %this, ptr noundef nonnull align 8 dereferenceable(8) %other) unnamed_addr #0 align 2 {
entry:
  %this.addr = alloca ptr, align 8
  %other.addr = alloca ptr, align 8
  store ptr %this, ptr %this.addr, align 8
  store ptr %other, ptr %other.addr, align 8
  %this1 = load ptr, ptr %this.addr, align 8
  %vtable = load ptr, ptr %this1, align 8
  %vfn = getelementptr inbounds ptr, ptr %vtable, i64 7
  %0 = load ptr, ptr %vfn, align 8
  %call = call noundef ptr %0(ptr noundef nonnull align 8 dereferenceable(1032) %this1)
  %1 = load ptr, ptr %other.addr, align 8
  %vtable2 = load ptr, ptr %1, align 8
  %vfn3 = getelementptr inbounds ptr, ptr %vtable2, i64 7
  %2 = load ptr, ptr %vfn3, align 8
  %call4 = call noundef ptr %2(ptr noundef nonnull align 8 dereferenceable(8) %1)
  %call5 = call i32 @strcmp(ptr noundef %call, ptr noundef %call4) #16
  %cmp = icmp eq i32 %call5, 0
  br i1 %cmp, label %if.then, label %if.end

if.then:                                          ; preds = %entry
  %3 = load ptr, ptr %other.addr, align 8
  %call6 = call noundef ptr @_ZN7rocksdb22static_cast_with_checkIKNS_22HistogramWindowingImplEKNS_9HistogramEEEPT_PT0_(ptr noundef %3)
  call void @_ZN7rocksdb22HistogramWindowingImpl5MergeERKS0_(ptr noundef nonnull align 8 dereferenceable(1032) %this1, ptr noundef nonnull align 8 dereferenceable(1032) %call6)
  br label %if.end

if.end:                                           ; preds = %if.then, %entry
  ret void
}