; Function Attrs: mustprogress uwtable
define void @_ZN7rocksdb22HistogramWindowingImpl5MergeERKNS_9HistogramE(ptr noundef nonnull align 8 dereferenceable(1032) %this, ptr noundef nonnull align 8 dereferenceable(8) %other) unnamed_addr #0 align 2 {
entry:
  %vtable = load ptr, ptr %this, align 8
  %vfn = getelementptr inbounds i8, ptr %vtable, i64 56
  %0 = load ptr, ptr %vfn, align 8
  %call = tail call noundef ptr %0(ptr noundef nonnull align 8 dereferenceable(1032) %this)
  %vtable2 = load ptr, ptr %other, align 8
  %vfn3 = getelementptr inbounds i8, ptr %vtable2, i64 56
  %1 = load ptr, ptr %vfn3, align 8
  %call4 = tail call noundef ptr %1(ptr noundef nonnull align 8 dereferenceable(8) %other)
  %call5 = tail call i32 @strcmp(ptr noundef nonnull dereferenceable(1) %call, ptr noundef nonnull dereferenceable(1) %call4) #15
  %cmp = icmp eq i32 %call5, 0
  br i1 %cmp, label %if.then, label %if.end

if.then:                                          ; preds = %entry
  tail call void @_ZN7rocksdb22HistogramWindowingImpl5MergeERKS0_(ptr noundef nonnull align 8 dereferenceable(1032) %this, ptr noundef nonnull align 8 dereferenceable(1032) %other)
  br label %if.end

if.end:                                           ; preds = %if.then, %entry
  ret void
}